Certificate:
    Data:
        Version: 3 (0x2)
        Serial Number:
            c7:4a:82:f6:9d:1b:f6:7e
        Signature Algorithm: sha1WithRSAEncryption
        Issuer: C=PL, ST=Maz, O=Samsung, OU=SPRC, CN=Samsung/emailAddress=samsung@samsung.com
        Validity
            Not Before: Oct  5 12:00:51 2011 GMT
            Not After : Oct  2 12:00:51 2021 GMT
        Subject: C=PL, ST=MAZ, L=Leg, O=Sam, OU=SPRC, CN=Filip/emailAddress=filip@samsung.com
        Subject Public Key Info:
            Public Key Algorithm: rsaEncryption
            RSA Public Key: (1024 bit)
                Modulus (1024 bit):
                    00:d2:fe:c4:b4:c1:74:82:6f:7e:28:8c:df:1b:58:
                    57:78:3e:5f:5e:4c:b1:e1:d7:c5:0d:1a:c3:e9:2e:
                    9a:78:8a:d7:5f:b9:cf:ce:83:2a:9a:4a:80:f0:07:
                    35:61:11:60:15:2c:24:f1:7b:15:1a:e0:d7:2f:6b:
                    ee:35:35:b9:16:e1:10:ac:17:37:86:b3:49:2d:a6:
                    ed:7e:f1:0f:af:d1:01:0e:1a:a5:45:da:b4:24:82:
                    29:73:0c:5f:e8:3b:9e:85:c7:0f:6f:1b:53:80:fa:
                    a7:50:77:7c:8e:01:5d:84:a8:b3:41:3e:b1:18:07:
                    d2:b9:18:5c:9f:7e:b6:a4:49
                Exponent: 65537 (0x10001)
        X509v3 extensions:
            X509v3 Basic Constraints: 
                CA:FALSE
            Netscape Comment: 
                OpenSSL Generated Certificate
            X509v3 Subject Key Identifier: 
                7B:2C:B7:89:5E:F9:2A:D3:A4:A4:F1:5D:EA:69:D1:F5:D1:46:64:CC
            X509v3 Authority Key Identifier: 
                keyid:82:08:7F:DB:00:02:86:E8:53:2A:A5:FA:58:AE:67:7F:14:38:C8:60

    Signature Algorithm: sha1WithRSAEncryption
        0e:db:f4:08:1a:d0:d5:00:8c:1f:d8:ca:16:3a:52:a6:ae:f3:
        14:a3:17:41:e5:6d:6f:f6:62:7b:cd:b7:ff:fc:28:89:c8:3c:
        93:19:cf:e6:c4:b8:74:95:8d:5c:d6:f5:88:c2:dd:86:05:7c:
        d2:0d:72:b7:78:13:58:fc:53:b4:5c:e9:ad:0c:8d:88:91:d3:
        9a:b6:cd:59:72:d7:d6:ba:11:54:65:04:fc:8f:10:e3:17:b1:
        aa:96:cd:94:92:16:d8:98:e6:fe:4a:a8:29:f9:ca:c4:e4:46:
        e8:73:4f:5d:95:76:f4:d6:36:7c:34:4f:3c:e2:18:a0:54:33:
        ad:72
-----BEGIN CERTIFICATE-----
MIIC4zCCAkygAwIBAgIJAMdKgvadG/Z+MA0GCSqGSIb3DQEBBQUAMHIxCzAJBgNV
BAYTAlBMMQwwCgYDVQQIEwNNYXoxEDAOBgNVBAoTB1NhbXN1bmcxDTALBgNVBAsT
BFNQUkMxEDAOBgNVBAMTB1NhbXN1bmcxIjAgBgkqhkiG9w0BCQEWE3NhbXN1bmdA
c2Ftc3VuZy5jb20wHhcNMTExMDA1MTIwMDUxWhcNMjExMDAyMTIwMDUxWjB4MQsw
CQYDVQQGEwJQTDEMMAoGA1UECBMDTUFaMQwwCgYDVQQHEwNMZWcxDDAKBgNVBAoT
A1NhbTENMAsGA1UECxMEU1BSQzEOMAwGA1UEAxMFRmlsaXAxIDAeBgkqhkiG9w0B
CQEWEWZpbGlwQHNhbXN1bmcuY29tMIGfMA0GCSqGSIb3DQEBAQUAA4GNADCBiQKB
gQDS/sS0wXSCb34ojN8bWFd4Pl9eTLHh18UNGsPpLpp4itdfuc/OgyqaSoDwBzVh
EWAVLCTxexUa4Ncva+41NbkW4RCsFzeGs0ktpu1+8Q+v0QEOGqVF2rQkgilzDF/o
O56Fxw9vG1OA+qdQd3yOAV2EqLNBPrEYB9K5GFyffrakSQIDAQABo3sweTAJBgNV
HRMEAjAAMCwGCWCGSAGG+EIBDQQfFh1PcGVuU1NMIEdlbmVyYXRlZCBDZXJ0aWZp
Y2F0ZTAdBgNVHQ4EFgQUeyy3iV75KtOkpPFd6mnR9dFGZMwwHwYDVR0jBBgwFoAU
ggh/2wAChuhTKqX6WK5nfxQ4yGAwDQYJKoZIhvcNAQEFBQADgYEADtv0CBrQ1QCM
H9jKFjpSpq7zFKMXQeVtb/Zie823//woicg8kxnP5sS4dJWNXNb1iMLdhgV80g1y
t3gTWPxTtFzprQyNiJHTmrbNWXLX1roRVGUE/I8Q4xexqpbNlJIW2Jjm/kqoKfnK
xORG6HNPXZV29NY2fDRPPOIYoFQzrXI=
-----END CERTIFICATE-----
