Certificate:
    Data:
        Version: 3 (0x2)
        Serial Number:
            c7:4a:82:f6:9d:1b:f6:7f
        Signature Algorithm: sha1WithRSAEncryption
        Issuer: C=PL, ST=Maz, O=Samsung, OU=SPRC, CN=Samsung/emailAddress=samsung@samsung.com
        Validity
            Not Before: Oct  5 12:11:33 2011 GMT
            Not After : Oct  2 12:11:33 2021 GMT
        Subject: C=PL, ST=Mazowieckie, L=legionowo, O=samsung, OU=sprc, CN=magda/emailAddress=magda@samsung.com
        Subject Public Key Info:
            Public Key Algorithm: dsaEncryption
            DSA Public Key:
                pub: 
                    00:ac:40:42:0e:cc:a8:28:24:0b:43:09:7e:d6:23:
                    35:a2:8c:e6:7d:62:66:fe:23:d6:58:b8:f7:32:9f:
                    63:99:d3:2c:ff:af:60:0b:e0:d2:8c:0b:35:8b:c9:
                    e6:77:0a:7d:8d:43:00:23:d4:e3:ff:ad:0b:b4:d3:
                    b9:af:79:c2:08:f9:af:0b:c0:5e:7c:e0:4b:23:86:
                    b9:2a:f4:7c:af:43:ca:b1:fa:13:42:df:5d:3f:96:
                    b8:84:07:6a:19:b6:89:26:f1:a8:fa:c2:86:59:e9:
                    e7:f1:17:0d:30:5a:3b:a4:1f:76:9a:b4:04:fe:3c:
                    0a:56:5e:6f:17:00:f9:36:05
                P:   
                    00:b5:3c:23:9a:b0:58:65:7c:c7:35:ca:37:5c:a7:
                    bc:e4:cd:71:a2:5b:e3:29:56:e1:65:b1:d6:30:90:
                    06:bd:b0:8b:cd:ad:02:e2:da:e9:71:72:73:41:78:
                    21:ca:0d:b9:3b:53:e2:77:fd:0c:0e:d9:76:a7:6a:
                    94:0c:52:ab:df:8d:f8:cb:d5:04:39:55:fe:c4:35:
                    45:8f:34:fe:dc:12:fc:7c:d8:d6:f9:8d:67:47:c9:
                    17:d5:ff:f4:dc:88:16:4d:f0:62:cd:11:b7:e1:b5:
                    69:61:23:a0:9b:0d:6d:40:69:8d:27:3d:9f:3b:f6:
                    b4:88:93:bf:da:34:a6:77:15
                Q:   
                    00:b7:2b:f2:e4:00:9a:75:7e:dc:32:c8:03:99:d3:
                    a3:40:60:d1:b8:cb
                G:   
                    24:6e:e6:79:4b:50:6c:cb:a5:44:c7:63:cd:e0:a8:
                    c9:ad:85:5d:d9:be:e1:a7:2f:22:71:3d:ff:e3:32:
                    6d:74:c1:dd:b1:40:34:cc:b0:e9:64:ef:93:82:bd:
                    44:af:2d:9b:9d:8d:f7:97:32:91:38:e9:01:bc:6a:
                    4c:c6:97:c2:47:56:6c:e1:5d:54:a0:0a:9f:2c:62:
                    fd:42:ad:63:d4:3a:36:6c:09:07:68:5b:03:51:94:
                    ce:13:e4:a3:ca:c4:75:ae:ba:08:69:74:55:bc:8c:
                    d6:52:8c:26:30:3e:c2:9f:69:1b:5d:74:2f:4a:2f:
                    d7:d4:3d:7e:fa:8a:a7:95
        X509v3 extensions:
            X509v3 Basic Constraints: 
                CA:FALSE
            Netscape Comment: 
                OpenSSL Generated Certificate
            X509v3 Subject Key Identifier: 
                99:2A:52:86:CC:2F:5A:D1:00:05:DF:A5:DD:6C:5C:71:17:02:C9:D5
            X509v3 Authority Key Identifier: 
                keyid:82:08:7F:DB:00:02:86:E8:53:2A:A5:FA:58:AE:67:7F:14:38:C8:60

    Signature Algorithm: sha1WithRSAEncryption
        81:f9:c0:bb:f8:0c:25:10:bf:04:5c:24:82:fa:c7:2f:44:d5:
        e1:f7:cf:54:07:fb:45:29:d9:4b:a8:9b:e0:81:c6:82:bb:d7:
        26:f2:fe:42:1e:ef:1f:29:2f:64:8a:83:d8:bf:7a:9d:8d:84:
        69:23:6b:d3:25:eb:4f:cd:58:44:e9:dd:39:05:09:37:1e:18:
        fd:6f:26:e9:ab:2e:e2:1c:c0:34:d6:6a:58:26:c0:a4:f0:c8:
        30:ae:95:70:f0:35:c2:b2:a0:66:a6:d6:a7:6d:7c:58:1a:88:
        da:ff:69:5d:5d:0e:fa:3a:73:c6:ad:7e:19:e4:15:d9:4b:1b:
        47:07
-----BEGIN CERTIFICATE-----
MIIEDzCCA3igAwIBAgIJAMdKgvadG/Z/MA0GCSqGSIb3DQEBBQUAMHIxCzAJBgNV
BAYTAlBMMQwwCgYDVQQIEwNNYXoxEDAOBgNVBAoTB1NhbXN1bmcxDTALBgNVBAsT
BFNQUkMxEDAOBgNVBAMTB1NhbXN1bmcxIjAgBgkqhkiG9w0BCQEWE3NhbXN1bmdA
c2Ftc3VuZy5jb20wHhcNMTExMDA1MTIxMTMzWhcNMjExMDAyMTIxMTMzWjCBijEL
MAkGA1UEBhMCUEwxFDASBgNVBAgTC01hem93aWVja2llMRIwEAYDVQQHEwlsZWdp
b25vd28xEDAOBgNVBAoTB3NhbXN1bmcxDTALBgNVBAsTBHNwcmMxDjAMBgNVBAMT
BW1hZ2RhMSAwHgYJKoZIhvcNAQkBFhFtYWdkYUBzYW1zdW5nLmNvbTCCAbcwggEr
BgcqhkjOOAQBMIIBHgKBgQC1PCOasFhlfMc1yjdcp7zkzXGiW+MpVuFlsdYwkAa9
sIvNrQLi2ulxcnNBeCHKDbk7U+J3/QwO2XanapQMUqvfjfjL1QQ5Vf7ENUWPNP7c
Evx82Nb5jWdHyRfV//TciBZN8GLNEbfhtWlhI6CbDW1AaY0nPZ879rSIk7/aNKZ3
FQIVALcr8uQAmnV+3DLIA5nTo0Bg0bjLAoGAJG7meUtQbMulRMdjzeCoya2FXdm+
4acvInE9/+MybXTB3bFANMyw6WTvk4K9RK8tm52N95cykTjpAbxqTMaXwkdWbOFd
VKAKnyxi/UKtY9Q6NmwJB2hbA1GUzhPko8rEda66CGl0VbyM1lKMJjA+wp9pG110
L0ov19Q9fvqKp5UDgYUAAoGBAKxAQg7MqCgkC0MJftYjNaKM5n1iZv4j1li49zKf
Y5nTLP+vYAvg0owLNYvJ5ncKfY1DACPU4/+tC7TTua95wgj5rwvAXnzgSyOGuSr0
fK9DyrH6E0LfXT+WuIQHahm2iSbxqPrChlnp5/EXDTBaO6Qfdpq0BP48ClZebxcA
+TYFo3sweTAJBgNVHRMEAjAAMCwGCWCGSAGG+EIBDQQfFh1PcGVuU1NMIEdlbmVy
YXRlZCBDZXJ0aWZpY2F0ZTAdBgNVHQ4EFgQUmSpShswvWtEABd+l3WxccRcCydUw
HwYDVR0jBBgwFoAUggh/2wAChuhTKqX6WK5nfxQ4yGAwDQYJKoZIhvcNAQEFBQAD
gYEAgfnAu/gMJRC/BFwkgvrHL0TV4ffPVAf7RSnZS6ib4IHGgrvXJvL+Qh7vHykv
ZIqD2L96nY2EaSNr0yXrT81YROndOQUJNx4Y/W8m6asu4hzANNZqWCbApPDIMK6V
cPA1wrKgZqbWp218WBqI2v9pXV0O+jpzxq1+GeQV2UsbRwc=
-----END CERTIFICATE-----
