Certificate:
    Data:
        Version: 3 (0x2)
        Serial Number:
            85:7d:e1:c5:d9:de:7a:1f
        Signature Algorithm: sha1WithRSAEncryption
        Issuer: C=PL, ST=Mazowieckie, O=Samsung, OU=SPRC, CN=Operator Test Root Certificate/emailAddress=operator@samsung.com
        Validity
            Not Before: Jan  4 17:27:08 2011 GMT
            Not After : Jan  3 17:27:08 2014 GMT
        Subject: C=PL, ST=Mazowieckie, O=Samsung, OU=SPRC, CN=Operator Test Root Certificate/emailAddress=operator@samsung.com
        Subject Public Key Info:
            Public Key Algorithm: rsaEncryption
            RSA Public Key: (1024 bit)
                Modulus (1024 bit):
                    00:c3:39:17:a8:f9:d0:69:37:9a:56:44:39:67:10:
                    14:a9:4b:a2:0b:c7:fc:a1:e8:e8:f7:1c:06:f4:9c:
                    83:f7:37:07:9d:9c:2c:1b:46:43:5f:f1:7b:91:a8:
                    cd:c0:76:00:d5:9c:c9:28:f7:91:28:b6:97:ec:85:
                    b1:10:0f:58:2e:f6:6f:98:b6:ab:7b:ca:08:10:7f:
                    55:32:bf:32:db:a7:c2:86:83:03:ee:41:0a:24:de:
                    17:e3:9d:8f:5b:fa:46:70:78:98:b4:c1:14:77:44:
                    ab:59:7c:4c:d3:4a:f7:54:f2:30:0d:38:73:95:9f:
                    21:0e:a9:86:3e:fc:82:4e:0b
                Exponent: 65537 (0x10001)
        X509v3 extensions:
            X509v3 Subject Key Identifier: 
                25:A5:90:9F:4D:3A:A4:19:0A:80:46:5E:F3:FB:20:CE:56:30:33:DA
            X509v3 Authority Key Identifier: 
                keyid:25:A5:90:9F:4D:3A:A4:19:0A:80:46:5E:F3:FB:20:CE:56:30:33:DA
                DirName:/C=PL/ST=Mazowieckie/O=Samsung/OU=SPRC/CN=Operator Test Root Certificate/emailAddress=operator@samsung.com
                serial:85:7D:E1:C5:D9:DE:7A:1F

            X509v3 Basic Constraints: 
                CA:TRUE
    Signature Algorithm: sha1WithRSAEncryption
        b9:d7:72:49:09:d8:6f:61:94:51:40:9d:c3:d3:23:53:97:b8:
        12:ee:cb:dd:57:e6:1f:a2:76:38:5d:42:51:bd:a9:30:19:f7:
        67:5b:a8:67:4a:9e:a1:f0:a9:22:14:94:77:32:27:79:37:9c:
        0a:0f:52:80:14:62:00:94:45:85:3b:fd:ad:b4:c3:20:45:ba:
        b7:91:1a:9e:38:51:0f:9b:d5:ce:74:c7:bd:4a:21:9a:2d:b5:
        71:0b:42:d2:95:72:66:fe:eb:11:ad:62:44:6c:32:4e:b4:00:
        37:d7:b8:d5:4b:f6:74:36:78:d6:ae:66:b3:ca:6e:42:ff:cb:
        c2:e6
-----BEGIN CERTIFICATE-----
MIIDnzCCAwigAwIBAgIJAIV94cXZ3nofMA0GCSqGSIb3DQEBBQUAMIGSMQswCQYD
VQQGEwJQTDEUMBIGA1UECBMLTWF6b3dpZWNraWUxEDAOBgNVBAoTB1NhbXN1bmcx
DTALBgNVBAsTBFNQUkMxJzAlBgNVBAMTHk9wZXJhdG9yIFRlc3QgUm9vdCBDZXJ0
aWZpY2F0ZTEjMCEGCSqGSIb3DQEJARYUb3BlcmF0b3JAc2Ftc3VuZy5jb20wHhcN
MTEwMTA0MTcyNzA4WhcNMTQwMTAzMTcyNzA4WjCBkjELMAkGA1UEBhMCUEwxFDAS
BgNVBAgTC01hem93aWVja2llMRAwDgYDVQQKEwdTYW1zdW5nMQ0wCwYDVQQLEwRT
UFJDMScwJQYDVQQDEx5PcGVyYXRvciBUZXN0IFJvb3QgQ2VydGlmaWNhdGUxIzAh
BgkqhkiG9w0BCQEWFG9wZXJhdG9yQHNhbXN1bmcuY29tMIGfMA0GCSqGSIb3DQEB
AQUAA4GNADCBiQKBgQDDOReo+dBpN5pWRDlnEBSpS6ILx/yh6Oj3HAb0nIP3Nwed
nCwbRkNf8XuRqM3AdgDVnMko95EotpfshbEQD1gu9m+Ytqt7yggQf1UyvzLbp8KG
gwPuQQok3hfjnY9b+kZweJi0wRR3RKtZfEzTSvdU8jANOHOVnyEOqYY+/IJOCwID
AQABo4H6MIH3MB0GA1UdDgQWBBQlpZCfTTqkGQqARl7z+yDOVjAz2jCBxwYDVR0j
BIG/MIG8gBQlpZCfTTqkGQqARl7z+yDOVjAz2qGBmKSBlTCBkjELMAkGA1UEBhMC
UEwxFDASBgNVBAgTC01hem93aWVja2llMRAwDgYDVQQKEwdTYW1zdW5nMQ0wCwYD
VQQLEwRTUFJDMScwJQYDVQQDEx5PcGVyYXRvciBUZXN0IFJvb3QgQ2VydGlmaWNh
dGUxIzAhBgkqhkiG9w0BCQEWFG9wZXJhdG9yQHNhbXN1bmcuY29tggkAhX3hxdne
eh8wDAYDVR0TBAUwAwEB/zANBgkqhkiG9w0BAQUFAAOBgQC513JJCdhvYZRRQJ3D
0yNTl7gS7svdV+YfonY4XUJRvakwGfdnW6hnSp6h8KkiFJR3Mid5N5wKD1KAFGIA
lEWFO/2ttMMgRbq3kRqeOFEPm9XOdMe9SiGaLbVxC0LSlXJm/usRrWJEbDJOtAA3
17jVS/Z0NnjWrmazym5C/8vC5g==
-----END CERTIFICATE-----
