Certificate:
    Data:
        Version: 3 (0x2)
        Serial Number:
            85:7d:e1:c5:d9:de:7a:20
        Signature Algorithm: sha1WithRSAEncryption
        Issuer: C=PL, ST=Mazowieckie, O=Samsung, OU=SPRC, CN=Operator Test Root Certificate/emailAddress=operator@samsung.com
        Validity
            Not Before: Jan  4 17:34:31 2011 GMT
            Not After : Jan  4 17:34:31 2012 GMT
        Subject: C=PL, ST=Malopolskie, L=Krakow, O=Samsung, OU=N/A, CN=Operator Test Second Level Certificate/emailAddress=second.operator@samsung.com
        Subject Public Key Info:
            Public Key Algorithm: rsaEncryption
            RSA Public Key: (1024 bit)
                Modulus (1024 bit):
                    00:ba:3c:58:ca:87:1e:59:68:54:8a:54:34:43:61:
                    f1:81:e6:35:c1:46:74:16:c7:ff:f9:15:9e:0c:5a:
                    6a:89:c1:13:0c:61:2e:ba:00:e0:71:ea:7e:31:ae:
                    4e:ef:93:58:51:98:97:f3:bf:8a:9b:b2:c1:b7:0c:
                    5f:3f:56:b3:13:3b:d0:80:be:04:66:89:84:50:ca:
                    fe:f6:f7:6b:05:3b:30:4e:96:9c:5b:c5:80:bc:d6:
                    be:6e:69:f4:b9:9b:4c:06:7a:ed:37:67:b2:fe:45:
                    69:57:62:54:cb:69:69:48:b9:7d:a0:42:f1:b6:dc:
                    f2:7f:eb:75:2a:d4:83:69:b9
                Exponent: 65537 (0x10001)
        X509v3 extensions:
            X509v3 Basic Constraints: 
                CA:FALSE
            Netscape Comment: 
                OpenSSL Generated Certificate
            X509v3 Subject Key Identifier: 
                D9:F3:11:BF:98:5A:60:12:7A:85:B5:E7:A7:38:4F:CF:51:1D:C6:B2
            X509v3 Authority Key Identifier: 
                keyid:25:A5:90:9F:4D:3A:A4:19:0A:80:46:5E:F3:FB:20:CE:56:30:33:DA

    Signature Algorithm: sha1WithRSAEncryption
        69:6c:26:81:51:91:a6:e6:11:dc:81:35:03:73:85:4f:2f:29:
        1f:20:f2:23:54:82:ca:8f:b8:a6:e3:3f:cd:72:5e:d7:e7:f5:
        84:8a:33:e2:51:9f:36:4b:30:85:f4:4f:87:c7:9a:69:0b:15:
        6e:92:c7:1f:2f:58:a4:57:f8:c2:cd:59:6c:d2:11:63:ae:bb:
        b0:32:3f:09:e7:2e:ad:db:1b:fe:e7:a4:21:43:47:76:e1:de:
        36:bb:26:3f:16:76:20:ed:a4:68:c1:48:ae:2b:95:fb:f6:d2:
        f2:7f:74:f6:83:e2:89:06:b5:89:54:6e:7f:cf:88:94:66:e8:
        da:32
-----BEGIN CERTIFICATE-----
MIIDPjCCAqegAwIBAgIJAIV94cXZ3nogMA0GCSqGSIb3DQEBBQUAMIGSMQswCQYD
VQQGEwJQTDEUMBIGA1UECBMLTWF6b3dpZWNraWUxEDAOBgNVBAoTB1NhbXN1bmcx
DTALBgNVBAsTBFNQUkMxJzAlBgNVBAMTHk9wZXJhdG9yIFRlc3QgUm9vdCBDZXJ0
aWZpY2F0ZTEjMCEGCSqGSIb3DQEJARYUb3BlcmF0b3JAc2Ftc3VuZy5jb20wHhcN
MTEwMTA0MTczNDMxWhcNMTIwMTA0MTczNDMxWjCBsTELMAkGA1UEBhMCUEwxFDAS
BgNVBAgTC01hbG9wb2xza2llMQ8wDQYDVQQHEwZLcmFrb3cxEDAOBgNVBAoTB1Nh
bXN1bmcxDDAKBgNVBAsTA04vQTEvMC0GA1UEAxMmT3BlcmF0b3IgVGVzdCBTZWNv
bmQgTGV2ZWwgQ2VydGlmaWNhdGUxKjAoBgkqhkiG9w0BCQEWG3NlY29uZC5vcGVy
YXRvckBzYW1zdW5nLmNvbTCBnzANBgkqhkiG9w0BAQEFAAOBjQAwgYkCgYEAujxY
yoceWWhUilQ0Q2HxgeY1wUZ0Fsf/+RWeDFpqicETDGEuugDgcep+Ma5O75NYUZiX
87+Km7LBtwxfP1azEzvQgL4EZomEUMr+9vdrBTswTpacW8WAvNa+bmn0uZtMBnrt
N2ey/kVpV2JUy2lpSLl9oELxttzyf+t1KtSDabkCAwEAAaN7MHkwCQYDVR0TBAIw
ADAsBglghkgBhvhCAQ0EHxYdT3BlblNTTCBHZW5lcmF0ZWQgQ2VydGlmaWNhdGUw
HQYDVR0OBBYEFNnzEb+YWmASeoW156c4T89RHcayMB8GA1UdIwQYMBaAFCWlkJ9N
OqQZCoBGXvP7IM5WMDPaMA0GCSqGSIb3DQEBBQUAA4GBAGlsJoFRkabmEdyBNQNz
hU8vKR8g8iNUgsqPuKbjP81yXtfn9YSKM+JRnzZLMIX0T4fHmmkLFW6Sxx8vWKRX
+MLNWWzSEWOuu7AyPwnnLq3bG/7npCFDR3bh3ja7Jj8WdiDtpGjBSK4rlfv20vJ/
dPaD4okGtYlUbn/PiJRm6Noy
-----END CERTIFICATE-----
