Certificate:
    Data:
        Version: 3 (0x2)
        Serial Number:
            c7:4a:82:f6:9d:1b:f6:7d
        Signature Algorithm: sha1WithRSAEncryption
        Issuer: C=PL, ST=Maz, O=Samsung, OU=SPRC, CN=Samsung/emailAddress=samsung@samsung.com
        Validity
            Not Before: Oct  5 11:52:36 2011 GMT
            Not After : Oct  4 11:52:36 2014 GMT
        Subject: C=PL, ST=Maz, O=Samsung, OU=SPRC, CN=Samsung/emailAddress=samsung@samsung.com
        Subject Public Key Info:
            Public Key Algorithm: rsaEncryption
            RSA Public Key: (1024 bit)
                Modulus (1024 bit):
                    00:93:c2:12:8b:3e:b1:69:fe:c8:7e:f1:fa:b0:03:
                    d7:bd:25:03:bb:14:70:ab:65:ff:8f:e9:38:14:2b:
                    92:02:d9:e7:b4:78:60:a0:ce:b1:b8:b6:78:c5:af:
                    b3:83:3c:47:58:3d:1e:a0:78:69:4d:56:dd:8c:d8:
                    20:27:b2:0d:9f:bf:f1:d4:e1:39:0f:1b:6f:b8:cd:
                    ca:f4:0b:fd:d7:cb:64:09:c7:6d:1e:e8:dd:89:43:
                    7f:72:85:3d:9a:54:6e:7c:55:a0:da:f5:e9:28:01:
                    ec:3a:da:5a:18:45:fc:28:b1:0e:43:2c:4c:26:5c:
                    ca:bc:44:d9:ce:7d:5a:f2:f3
                Exponent: 65537 (0x10001)
        X509v3 extensions:
            X509v3 Subject Key Identifier: 
                82:08:7F:DB:00:02:86:E8:53:2A:A5:FA:58:AE:67:7F:14:38:C8:60
            X509v3 Authority Key Identifier: 
                keyid:82:08:7F:DB:00:02:86:E8:53:2A:A5:FA:58:AE:67:7F:14:38:C8:60
                DirName:/C=PL/ST=Maz/O=Samsung/OU=SPRC/CN=Samsung/emailAddress=samsung@samsung.com
                serial:C7:4A:82:F6:9D:1B:F6:7D

            X509v3 Basic Constraints: 
                CA:TRUE
    Signature Algorithm: sha1WithRSAEncryption
        0f:cb:a3:cd:25:02:00:17:a9:c5:21:4a:6e:bb:ce:d9:14:74:
        23:29:c5:47:ff:02:91:5a:ee:a1:53:a7:e4:69:6f:f2:00:bc:
        09:87:80:f8:3b:a5:51:59:e9:20:1f:1d:5d:cb:91:eb:91:1e:
        f4:79:bf:35:68:a5:ed:24:e5:28:dd:c9:1f:bf:53:f7:75:77:
        6c:fe:94:0c:de:9c:d9:8e:42:c6:7d:61:6b:5d:5d:ad:a7:6a:
        e4:9b:53:2a:f7:85:9c:51:1d:72:5d:5c:2f:eb:f9:ff:80:4c:
        6d:46:e8:a0:2c:8a:6f:94:13:b2:00:47:2c:b0:b0:1c:12:fc:
        a0:65
-----BEGIN CERTIFICATE-----
MIIDOjCCAqOgAwIBAgIJAMdKgvadG/Z9MA0GCSqGSIb3DQEBBQUAMHIxCzAJBgNV
BAYTAlBMMQwwCgYDVQQIEwNNYXoxEDAOBgNVBAoTB1NhbXN1bmcxDTALBgNVBAsT
BFNQUkMxEDAOBgNVBAMTB1NhbXN1bmcxIjAgBgkqhkiG9w0BCQEWE3NhbXN1bmdA
c2Ftc3VuZy5jb20wHhcNMTExMDA1MTE1MjM2WhcNMTQxMDA0MTE1MjM2WjByMQsw
CQYDVQQGEwJQTDEMMAoGA1UECBMDTWF6MRAwDgYDVQQKEwdTYW1zdW5nMQ0wCwYD
VQQLEwRTUFJDMRAwDgYDVQQDEwdTYW1zdW5nMSIwIAYJKoZIhvcNAQkBFhNzYW1z
dW5nQHNhbXN1bmcuY29tMIGfMA0GCSqGSIb3DQEBAQUAA4GNADCBiQKBgQCTwhKL
PrFp/sh+8fqwA9e9JQO7FHCrZf+P6TgUK5IC2ee0eGCgzrG4tnjFr7ODPEdYPR6g
eGlNVt2M2CAnsg2fv/HU4TkPG2+4zcr0C/3Xy2QJx20e6N2JQ39yhT2aVG58VaDa
9ekoAew62loYRfwosQ5DLEwmXMq8RNnOfVry8wIDAQABo4HXMIHUMB0GA1UdDgQW
BBSCCH/bAAKG6FMqpfpYrmd/FDjIYDCBpAYDVR0jBIGcMIGZgBSCCH/bAAKG6FMq
pfpYrmd/FDjIYKF2pHQwcjELMAkGA1UEBhMCUEwxDDAKBgNVBAgTA01hejEQMA4G
A1UEChMHU2Ftc3VuZzENMAsGA1UECxMEU1BSQzEQMA4GA1UEAxMHU2Ftc3VuZzEi
MCAGCSqGSIb3DQEJARYTc2Ftc3VuZ0BzYW1zdW5nLmNvbYIJAMdKgvadG/Z9MAwG
A1UdEwQFMAMBAf8wDQYJKoZIhvcNAQEFBQADgYEAD8ujzSUCABepxSFKbrvO2RR0
IynFR/8CkVruoVOn5Glv8gC8CYeA+DulUVnpIB8dXcuR65Ee9Hm/NWil7STlKN3J
H79T93V3bP6UDN6c2Y5Cxn1ha11dradq5JtTKveFnFEdcl1cL+v5/4BMbUbooCyK
b5QTsgBHLLCwHBL8oGU=
-----END CERTIFICATE-----
