Certificate:
    Data:
        Version: 3 (0x2)
        Serial Number: 0 (0x0)
        Signature Algorithm: sha1WithRSAEncryption
        Issuer: C=PL, ST=Masovian, O=priv, OU=priv, CN=priv
        Validity
            Not Before: Jul 29 14:32:12 2011 GMT
            Not After : Jul 28 14:32:12 2014 GMT
        Subject: C=PL, ST=Masovian, O=priv, OU=priv, CN=priv
        Subject Public Key Info:
            Public Key Algorithm: rsaEncryption
            RSA Public Key: (1024 bit)
                Modulus (1024 bit):
                    00:ab:68:cc:1a:41:78:50:0c:f4:43:3f:9e:8d:7b:
                    90:3d:eb:d6:8b:ce:d9:c1:b5:f4:d3:2e:75:f3:e1:
                    b3:29:97:1b:38:c6:20:73:8d:a6:cd:61:3f:e1:1c:
                    78:0f:fd:25:e2:a0:95:6d:a9:33:30:fe:24:76:3d:
                    e4:9d:23:b2:39:3c:98:a5:b2:20:2f:7d:c8:7d:d5:
                    00:7c:11:2c:6e:58:a2:18:03:02:48:4a:81:c7:eb:
                    7b:e9:e3:8d:b0:eb:3d:ee:21:19:7c:04:c2:ad:4f:
                    45:b3:1a:13:d1:76:35:c4:38:7e:0c:6c:7c:e7:83:
                    41:f0:78:1b:b4:16:d5:93:d9
                Exponent: 65537 (0x10001)
        X509v3 extensions:
            X509v3 Subject Key Identifier: 
                F6:6E:9E:36:6D:49:02:FC:91:1A:5A:9D:D3:FA:B4:9F:07:EE:A9:B3
            X509v3 Authority Key Identifier: 
                keyid:F6:6E:9E:36:6D:49:02:FC:91:1A:5A:9D:D3:FA:B4:9F:07:EE:A9:B3
                DirName:/C=PL/ST=Masovian/O=priv/OU=priv/CN=priv
                serial:00

            X509v3 Basic Constraints: 
                CA:TRUE
    Signature Algorithm: sha1WithRSAEncryption
        96:3c:f7:22:3d:32:c0:67:fc:3a:0a:3c:b7:62:38:7d:a6:d5:
        2d:86:c2:ce:6a:84:66:d4:56:b3:93:4e:4c:37:d1:49:b6:67:
        91:76:57:96:96:cc:5a:71:da:69:b7:52:9d:8f:17:f7:66:fa:
        6c:f1:98:28:44:af:60:df:ad:2a:8b:f5:f3:8c:27:c4:68:a5:
        2a:35:c1:6c:84:37:20:ee:c2:9c:58:98:a1:ff:ba:fd:38:36:
        45:c3:d7:38:5d:47:ad:c8:0d:26:2b:a9:9d:2e:39:73:b2:aa:
        da:e5:19:b8:57:28:62:dd:94:2a:c9:50:5b:33:59:b0:56:cf:
        eb:2f
-----BEGIN CERTIFICATE-----
MIICuDCCAiGgAwIBAgIBADANBgkqhkiG9w0BAQUFADBNMQswCQYDVQQGEwJQTDER
MA8GA1UECBMITWFzb3ZpYW4xDTALBgNVBAoTBHByaXYxDTALBgNVBAsTBHByaXYx
DTALBgNVBAMTBHByaXYwHhcNMTEwNzI5MTQzMjEyWhcNMTQwNzI4MTQzMjEyWjBN
MQswCQYDVQQGEwJQTDERMA8GA1UECBMITWFzb3ZpYW4xDTALBgNVBAoTBHByaXYx
DTALBgNVBAsTBHByaXYxDTALBgNVBAMTBHByaXYwgZ8wDQYJKoZIhvcNAQEBBQAD
gY0AMIGJAoGBAKtozBpBeFAM9EM/no17kD3r1ovO2cG19NMudfPhsymXGzjGIHON
ps1hP+EceA/9JeKglW2pMzD+JHY95J0jsjk8mKWyIC99yH3VAHwRLG5YohgDAkhK
gcfre+njjbDrPe4hGXwEwq1PRbMaE9F2NcQ4fgxsfOeDQfB4G7QW1ZPZAgMBAAGj
gacwgaQwHQYDVR0OBBYEFPZunjZtSQL8kRpandP6tJ8H7qmzMHUGA1UdIwRuMGyA
FPZunjZtSQL8kRpandP6tJ8H7qmzoVGkTzBNMQswCQYDVQQGEwJQTDERMA8GA1UE
CBMITWFzb3ZpYW4xDTALBgNVBAoTBHByaXYxDTALBgNVBAsTBHByaXYxDTALBgNV
BAMTBHByaXaCAQAwDAYDVR0TBAUwAwEB/zANBgkqhkiG9w0BAQUFAAOBgQCWPPci
PTLAZ/w6Cjy3Yjh9ptUthsLOaoRm1Fazk05MN9FJtmeRdleWlsxacdppt1Kdjxf3
Zvps8ZgoRK9g360qi/XzjCfEaKUqNcFshDcg7sKcWJih/7r9ODZFw9c4XUetyA0m
K6mdLjlzsqra5Rm4Vyhi3ZQqyVBbM1mwVs/rLw==
-----END CERTIFICATE-----
